; Function Attrs: nounwind uwtable
define ptr @l_Std_Time_Month_Ordinal_toDays(i8 noundef zeroext %0, ptr noundef %1) local_unnamed_addr #0 {
  %3 = tail call ptr @l_Std_Time_Month_Ordinal_toSeconds(i8 noundef zeroext %0, ptr noundef %1)
  %4 = load ptr, ptr @l_Std_Time_Month_Ordinal_toDays___closed__3, align 8, !tbaa !11
  %5 = getelementptr inbounds nuw i8, ptr %4, i64 8
  %6 = load ptr, ptr %5, align 8, !tbaa !11
  %7 = ptrtoint ptr %6 to i64
  %8 = and i64 %7, 1
  %.not = icmp eq i64 %8, 0
  br i1 %.not, label %9, label %lean_inc.exit.thread

9:                                                ; preds = %2
  %.val.i = load i32, ptr %6, align 4, !tbaa !5
  %10 = icmp sgt i32 %.val.i, 0
  br i1 %10, label %11, label %13, !prof !10

11:                                               ; preds = %9
  %12 = add nuw i32 %.val.i, 1
  store i32 %12, ptr %6, align 4, !tbaa !5
  br label %lean_inc.exit

13:                                               ; preds = %9
  %.not.i17 = icmp eq i32 %.val.i, 0
  br i1 %.not.i17, label %lean_inc.exit, label %14

14:                                               ; preds = %13
  tail call void @lean_inc_ref_cold(ptr noundef nonnull %6) #5
  br label %lean_inc.exit

lean_inc.exit:                                    ; preds = %14, %13, %11
  %15 = ptrtoint ptr %3 to i64
  %16 = and i64 %15, 1
  %.not.i18 = icmp eq i64 %16, 0
  %17 = tail call ptr @lean_int_big_mul(ptr noundef %3, ptr noundef nonnull %6) #5
  %18 = load i32, ptr %6, align 4, !tbaa !5
  %19 = icmp sgt i32 %18, 1
  br i1 %19, label %37, label %39, !prof !10

lean_inc.exit.thread:                             ; preds = %2
  %20 = ptrtoint ptr %3 to i64
  %21 = and i64 %20, 1
  %.not.i1821 = icmp eq i64 %21, 0
  br i1 %.not.i1821, label %lean_dec.exit12.thread29, label %.thread, !prof !13

.thread:                                          ; preds = %lean_inc.exit.thread
  %22 = shl i64 %20, 31
  %23 = ashr i64 %22, 32
  %24 = shl i64 %7, 31
  %25 = ashr i64 %24, 32
  %26 = mul nsw i64 %25, %23
  %27 = add nsw i64 %26, 2147483648
  %28 = icmp ult i64 %27, 4294967296
  br i1 %28, label %29, label %34, !prof !10

29:                                               ; preds = %.thread
  %30 = shl nsw i64 %26, 1
  %31 = and i64 %30, 8589934590
  %32 = or disjoint i64 %31, 1
  %33 = inttoptr i64 %32 to ptr
  br label %lean_dec.exit11

34:                                               ; preds = %.thread
  %35 = tail call ptr @lean_big_int64_to_int(i64 noundef range(i64 -4611686016279904256, 4611686018427387905) %26) #5
  br label %lean_dec.exit11

lean_dec.exit12.thread29:                         ; preds = %lean_inc.exit.thread
  %36 = tail call ptr @lean_int_big_mul(ptr noundef %3, ptr noundef %6) #5
  br label %41

37:                                               ; preds = %lean_inc.exit
  %38 = add nsw i32 %18, -1
  store i32 %38, ptr %6, align 4, !tbaa !5
  br label %lean_dec.exit12

39:                                               ; preds = %lean_inc.exit
  %.not.i = icmp eq i32 %18, 0
  br i1 %.not.i, label %lean_dec.exit12, label %40

40:                                               ; preds = %39
  tail call void @lean_dec_ref_cold(ptr noundef nonnull %6) #5
  br label %lean_dec.exit12

lean_dec.exit12:                                  ; preds = %40, %39, %37
  br i1 %.not.i18, label %41, label %lean_dec.exit11

41:                                               ; preds = %lean_dec.exit12.thread29, %lean_dec.exit12
  %.0.i2431 = phi ptr [ %36, %lean_dec.exit12.thread29 ], [ %17, %lean_dec.exit12 ]
  %42 = load i32, ptr %3, align 4, !tbaa !5
  %43 = icmp sgt i32 %42, 1
  br i1 %43, label %44, label %46, !prof !10

44:                                               ; preds = %41
  %45 = add nsw i32 %42, -1
  store i32 %45, ptr %3, align 4, !tbaa !5
  br label %lean_dec.exit11

46:                                               ; preds = %41
  %.not.i13 = icmp eq i32 %42, 0
  br i1 %.not.i13, label %lean_dec.exit11, label %47

47:                                               ; preds = %46
  tail call void @lean_dec_ref_cold(ptr noundef nonnull %3) #5
  br label %lean_dec.exit11

lean_dec.exit11:                                  ; preds = %29, %34, %47, %46, %44, %lean_dec.exit12
  %.0.i2428 = phi ptr [ %17, %lean_dec.exit12 ], [ %.0.i2431, %44 ], [ %.0.i2431, %46 ], [ %.0.i2431, %47 ], [ %35, %34 ], [ %33, %29 ]
  %48 = load ptr, ptr @l_Std_Time_Month_Ordinal_toDays___closed__4, align 8, !tbaa !11
  %49 = ptrtoint ptr %.0.i2428 to i64
  %50 = and i64 %49, 1
  %.not.i19 = icmp eq i64 %50, 0
  br i1 %.not.i19, label %77, label %51, !prof !13

51:                                               ; preds = %lean_dec.exit11
  %52 = ptrtoint ptr %48 to i64
  %53 = and i64 %52, 1
  %.not18.i = icmp eq i64 %53, 0
  br i1 %.not18.i, label %lean_int_ediv.exit.thread34, label %55, !prof !13

lean_int_ediv.exit.thread34:                      ; preds = %51
  %54 = tail call ptr @lean_int_big_ediv(ptr noundef %.0.i2428, ptr noundef %48) #5
  br label %lean_dec.exit

55:                                               ; preds = %51
  %56 = lshr i64 %52, 1
  %57 = trunc i64 %56 to i32
  %58 = icmp eq i32 %57, 0
  br i1 %58, label %lean_dec.exit, label %59

59:                                               ; preds = %55
  %sext.i = shl i64 %56, 32
  %60 = ashr exact i64 %sext.i, 32
  %61 = shl i64 %49, 31
  %62 = ashr i64 %61, 32
  %63 = sdiv i64 %62, %60
  %64 = srem i64 %62, %60
  %65 = icmp slt i64 %64, 0
  %66 = icmp sgt i32 %57, 0
  %.v.i = select i1 %66, i64 -1, i64 1
  %67 = select i1 %65, i64 %.v.i, i64 0
  %.016.i = add nsw i64 %67, %63
  %68 = add nsw i64 %.016.i, 2147483648
  %69 = icmp ult i64 %68, 4294967296
  br i1 %69, label %70, label %75, !prof !10

70:                                               ; preds = %59
  %71 = shl nsw i64 %.016.i, 1
  %72 = and i64 %71, 8589934590
  %73 = or disjoint i64 %72, 1
  %74 = inttoptr i64 %73 to ptr
  br label %lean_dec.exit

75:                                               ; preds = %59
  %76 = tail call ptr @lean_big_int64_to_int(i64 noundef range(i64 -4611686016279904256, 4611686018427387905) %.016.i) #5
  br label %lean_dec.exit

77:                                               ; preds = %lean_dec.exit11
  %78 = tail call ptr @lean_int_big_ediv(ptr noundef %.0.i2428, ptr noundef %48) #5
  %79 = load i32, ptr %.0.i2428, align 4, !tbaa !5
  %80 = icmp sgt i32 %79, 1
  br i1 %80, label %81, label %83, !prof !10

81:                                               ; preds = %77
  %82 = add nsw i32 %79, -1
  store i32 %82, ptr %.0.i2428, align 4, !tbaa !5
  br label %lean_dec.exit

83:                                               ; preds = %77
  %.not.i15 = icmp eq i32 %79, 0
  br i1 %.not.i15, label %lean_dec.exit, label %84

84:                                               ; preds = %83
  tail call void @lean_dec_ref_cold(ptr noundef nonnull %.0.i2428) #5
  br label %lean_dec.exit

lean_dec.exit:                                    ; preds = %75, %70, %55, %84, %83, %81, %lean_int_ediv.exit.thread34
  %.1.i33 = phi ptr [ %54, %lean_int_ediv.exit.thread34 ], [ %78, %81 ], [ %78, %83 ], [ %78, %84 ], [ %76, %75 ], [ %74, %70 ], [ inttoptr (i64 1 to ptr), %55 ]
  ret ptr %.1.i33
}